target datalayout = "e-m:e-p270:32:32-p271:32:32-p272:64:64-i64:64-i128:128-f80:128-n8:16:32:64-S128"
target triple = "x86_64-pc-linux-gnu"

; Function Attrs: nounwind uwtable
define i32 @av_image_check_size(i32 noundef %0, i32 noundef %1, i32 noundef %2, ptr noundef %3) #0 {
  %5 = alloca i32, align 4
  %6 = alloca i32, align 4
  %7 = alloca i32, align 4
  %8 = alloca ptr, align 8
  store i32 %0, ptr %5, align 4, !tbaa !11
  store i32 %1, ptr %6, align 4, !tbaa !11
  store i32 %2, ptr %7, align 4, !tbaa !11
  store ptr %3, ptr %8, align 8, !tbaa !42
  %9 = load i32, ptr %5, align 4, !tbaa !11
  %10 = load i32, ptr %6, align 4, !tbaa !11
  %11 = load i32, ptr %7, align 4, !tbaa !11
  %12 = load ptr, ptr %8, align 8, !tbaa !42
  %13 = call i32 @av_image_check_size2(i32 noundef %9, i32 noundef %10, i64 noundef 9223372036854775807, i32 noundef -1, i32 noundef %11, ptr noundef %12)
  ret i32 %13
}

; Function Attrs: nounwind uwtable
define i32 @av_image_fill_arrays(ptr noundef %0, ptr noundef %1, ptr noundef %2, i32 noundef %3, i32 noundef %4, i32 noundef %5, i32 noundef %6) #0 {
  %8 = alloca i32, align 4
  %9 = alloca ptr, align 8
  %10 = alloca ptr, align 8
  %11 = alloca ptr, align 8
  %12 = alloca i32, align 4
  %13 = alloca i32, align 4
  %14 = alloca i32, align 4
  %15 = alloca i32, align 4
  %16 = alloca i32, align 4
  %17 = alloca i32, align 4
  %18 = alloca i32, align 4
  store ptr %0, ptr %9, align 8, !tbaa !32
  store ptr %1, ptr %10, align 8, !tbaa !4
  store ptr %2, ptr %11, align 8, !tbaa !35
  store i32 %3, ptr %12, align 4, !tbaa !11
  store i32 %4, ptr %13, align 4, !tbaa !11
  store i32 %5, ptr %14, align 4, !tbaa !11
  store i32 %6, ptr %15, align 4, !tbaa !11
  call void @llvm.lifetime.start.p0(i64 4, ptr %16) #9
  call void @llvm.lifetime.start.p0(i64 4, ptr %17) #9
  %19 = load i32, ptr %13, align 4, !tbaa !11
  %20 = load i32, ptr %14, align 4, !tbaa !11
  %21 = call i32 @av_image_check_size(i32 noundef %19, i32 noundef %20, i32 noundef 0, ptr noundef null)
  store i32 %21, ptr %16, align 4, !tbaa !11
  %22 = load i32, ptr %16, align 4, !tbaa !11
  %23 = icmp slt i32 %22, 0
  br i1 %23, label %24, label %26

24:                                               ; preds = %7
  %25 = load i32, ptr %16, align 4, !tbaa !11
  store i32 %25, ptr %8, align 4
  store i32 1, ptr %18, align 4
  br label %66

26:                                               ; preds = %7
  %27 = load ptr, ptr %10, align 8, !tbaa !4
  %28 = load i32, ptr %12, align 4, !tbaa !11
  %29 = load i32, ptr %13, align 4, !tbaa !11
  %30 = call i32 @av_image_fill_linesizes(ptr noundef %27, i32 noundef %28, i32 noundef %29)
  store i32 %30, ptr %16, align 4, !tbaa !11
  %31 = load i32, ptr %16, align 4, !tbaa !11
  %32 = icmp slt i32 %31, 0
  br i1 %32, label %33, label %35

33:                                               ; preds = %26
  %34 = load i32, ptr %16, align 4, !tbaa !11
  store i32 %34, ptr %8, align 4
  store i32 1, ptr %18, align 4
  br label %66

35:                                               ; preds = %26
  store i32 0, ptr %17, align 4, !tbaa !11
  br label %36

36:                                               ; preds = %56, %35
  %37 = load i32, ptr %17, align 4, !tbaa !11
  %38 = icmp slt i32 %37, 4
  br i1 %38, label %39, label %59

39:                                               ; preds = %36
  %40 = load ptr, ptr %10, align 8, !tbaa !4
  %41 = load i32, ptr %17, align 4, !tbaa !11
  %42 = sext i32 %41 to i64
  %43 = getelementptr inbounds i32, ptr %40, i64 %42
  %44 = load i32, ptr %43, align 4, !tbaa !11
  %45 = load i32, ptr %15, align 4, !tbaa !11
  %46 = add nsw i32 %44, %45
  %47 = sub nsw i32 %46, 1
  %48 = load i32, ptr %15, align 4, !tbaa !11
  %49 = sub nsw i32 %48, 1
  %50 = xor i32 %49, -1
  %51 = and i32 %47, %50
  %52 = load ptr, ptr %10, align 8, !tbaa !4
  %53 = load i32, ptr %17, align 4, !tbaa !11
  %54 = sext i32 %53 to i64
  %55 = getelementptr inbounds i32, ptr %52, i64 %54
  store i32 %51, ptr %55, align 4, !tbaa !11
  br label %56

56:                                               ; preds = %39
  %57 = load i32, ptr %17, align 4, !tbaa !11
  %58 = add nsw i32 %57, 1
  store i32 %58, ptr %17, align 4, !tbaa !11
  br label %36, !llvm.loop !56

59:                                               ; preds = %36
  %60 = load ptr, ptr %9, align 8, !tbaa !32
  %61 = load i32, ptr %12, align 4, !tbaa !11
  %62 = load i32, ptr %14, align 4, !tbaa !11
  %63 = load ptr, ptr %11, align 8, !tbaa !35
  %64 = load ptr, ptr %10, align 8, !tbaa !4
  %65 = call i32 @av_image_fill_pointers(ptr noundef %60, i32 noundef %61, i32 noundef %62, ptr noundef %63, ptr noundef %64)
  store i32 %65, ptr %8, align 4
  store i32 1, ptr %18, align 4
  br label %66

66:                                               ; preds = %59, %33, %24
  call void @llvm.lifetime.end.p0(i64 4, ptr %17) #9
  call void @llvm.lifetime.end.p0(i64 4, ptr %16) #9
  %67 = load i32, ptr %8, align 4
  ret i32 %67
}