; Function Attrs: nounwind uwtable
define i32 @av_image_fill_arrays(ptr noundef writeonly captures(none) %0, ptr noundef captures(none) %1, ptr noundef %2, i32 noundef %3, i32 noundef %4, i32 noundef %5, i32 noundef %6) local_unnamed_addr #3 {
  %8 = tail call range(i32 -22, 1) i32 @av_image_check_size2(i32 noundef %4, i32 noundef %5, i64 noundef 9223372036854775807, i32 noundef -1, i32 noundef 0, ptr noundef null)
  %9 = icmp slt i32 %8, 0
  br i1 %9, label %22, label %10

10:                                               ; preds = %7
  %11 = tail call i32 @av_image_fill_linesizes(ptr noundef %1, i32 noundef %3, i32 noundef %4)
  %12 = icmp slt i32 %11, 0
  br i1 %12, label %22, label %.preheader

.preheader:                                       ; preds = %10
  %13 = add i32 %6, -1
  %14 = sub i32 0, %6
  br label %15

15:                                               ; preds = %.preheader, %15
  %indvars.iv = phi i64 [ 0, %.preheader ], [ %indvars.iv.next, %15 ]
  %16 = getelementptr inbounds nuw i32, ptr %1, i64 %indvars.iv
  %17 = load i32, ptr %16, align 4, !tbaa !10
  %18 = add i32 %13, %17
  %19 = and i32 %18, %14
  store i32 %19, ptr %16, align 4, !tbaa !10
  %indvars.iv.next = add nuw nsw i64 %indvars.iv, 1
  %exitcond.not = icmp eq i64 %indvars.iv.next, 4
  br i1 %exitcond.not, label %20, label %15, !llvm.loop !42

20:                                               ; preds = %15
  %21 = tail call i32 @av_image_fill_pointers(ptr noundef %0, i32 noundef %3, i32 noundef %5, ptr noundef %2, ptr noundef nonnull %1)
  br label %22

22:                                               ; preds = %10, %7, %20
  %.022 = phi i32 [ %21, %20 ], [ %8, %7 ], [ %11, %10 ]
  ret i32 %.022
}